; Function Attrs: mustprogress nofree norecurse nosync nounwind willreturn memory(argmem: read) uwtable
define noundef double @_Z41pull_conversion_factor_internal2userinputRK12t_pull_coord(ptr noundef nonnull readonly align 8 captures(none) dereferenceable(176) %0) local_unnamed_addr #15 {
  %2 = getelementptr inbounds nuw i8, ptr %0, i64 40
  %3 = load i32, ptr %2, align 8, !tbaa !64
  %4 = sext i32 %3 to i64
  %5 = getelementptr inbounds nuw [9 x i8], ptr @_ZL14sc_isAngleType, i64 0, i64 %4
  %6 = load i8, ptr %5, align 1, !tbaa !72, !range !73, !noundef !74
  %7 = trunc nuw i8 %6 to i1
  %. = select i1 %7, double 0x404CA5DC1A63C1F8, double 1.000000e+00
  ret double %.
}